; Function Attrs: mustprogress uwtable
define noundef i32 @_ZNK6casadi7Project10sp_forwardEPPKyPPyPxS4_(ptr noundef nonnull align 8 dereferenceable(64) %0, ptr nocapture noundef readonly %1, ptr nocapture noundef readonly %2, ptr nocapture readnone %3, ptr nocapture readnone %4) unnamed_addr #3 align 2 {
  %6 = getelementptr inbounds i8, ptr %0, i64 32
  %7 = getelementptr inbounds i8, ptr %0, i64 40
  %8 = load ptr, ptr %7, align 8
  %9 = load ptr, ptr %6, align 8
  %.not.i.i.i.not = icmp eq ptr %8, %9
  br i1 %.not.i.i.i.not, label %10, label %_ZNK6casadi6MXNode3depEx.exit

10:                                               ; preds = %5
  tail call void (ptr, ...) @_ZSt24__throw_out_of_range_fmtPKcz(ptr noundef nonnull @.str.10, i64 noundef 0, i64 noundef 0) #17
  unreachable

_ZNK6casadi6MXNode3depEx.exit:                    ; preds = %5
  %11 = load ptr, ptr %1, align 8
  %12 = load ptr, ptr %2, align 8
  %13 = getelementptr inbounds i8, ptr %0, i64 56
  %14 = tail call noundef nonnull align 8 dereferenceable(8) ptr @_ZNK6casadi2MX8sparsityEv(ptr noundef nonnull align 8 dereferenceable(8) %9)
  tail call void @_ZNK6casadi8Sparsity3setIyEEvPT_PKS2_RKS0_(ptr noundef nonnull align 8 dereferenceable(8) %13, ptr noundef %12, ptr noundef %11, ptr noundef nonnull align 8 dereferenceable(8) %14)
  ret i32 0
}